target datalayout = "e-m:e-p270:32:32-p271:32:32-p272:64:64-i64:64-i128:128-f80:128-n8:16:32:64-S128"
target triple = "x86_64-pc-linux-gnu"

%"class.icu_77::numparse::impl::ParsedNumber" = type { %"class.icu_77::number::impl::DecimalQuantity", i32, i32, %"class.icu_77::UnicodeString", %"class.icu_77::UnicodeString", [4 x i16] }
%"class.icu_77::number::impl::DecimalQuantity" = type <{ %"class.icu_77::IFixedDecimal", i8, [3 x i8], i32, i32, i8, i8, [2 x i8], double, i32, i32, i32, i32, %union.anon, i8, i8, [6 x i8] }>
%"class.icu_77::IFixedDecimal" = type { ptr }
%union.anon = type { %struct.anon }
%struct.anon = type { ptr, i32 }
%"class.icu_77::UnicodeString" = type { %"class.icu_77::Replaceable", %"union.icu_77::UnicodeString::StackBufferOrFields" }
%"class.icu_77::Replaceable" = type { %"class.icu_77::UObject" }
%"class.icu_77::UObject" = type { ptr }
%"union.icu_77::UnicodeString::StackBufferOrFields" = type { %struct.anon.1, [32 x i8] }
%struct.anon.1 = type { i16, i32, i32, ptr }

; Function Attrs: mustprogress nounwind uwtable
define void @_ZNK6icu_778numparse4impl24RequireCurrencyValidator11postProcessERNS1_12ParsedNumberE(ptr noundef nonnull align 8 dereferenceable(8) %0, ptr noundef nonnull align 8 dereferenceable(216) %1) unnamed_addr #2 align 2 {
  %3 = alloca ptr, align 8
  %4 = alloca ptr, align 8
  store ptr %0, ptr %3, align 8, !tbaa !27
  store ptr %1, ptr %4, align 8, !tbaa !8
  %5 = load ptr, ptr %4, align 8, !tbaa !8
  %6 = getelementptr inbounds nuw %"class.icu_77::numparse::impl::ParsedNumber", ptr %5, i32 0, i32 5
  %7 = getelementptr inbounds [4 x i16], ptr %6, i64 0, i64 0
  %8 = load i16, ptr %7, align 8, !tbaa !29
  %9 = zext i16 %8 to i32
  %10 = icmp eq i32 %9, 0
  br i1 %10, label %11, label %16

11:                                               ; preds = %2
  %12 = load ptr, ptr %4, align 8, !tbaa !8
  %13 = getelementptr inbounds nuw %"class.icu_77::numparse::impl::ParsedNumber", ptr %12, i32 0, i32 2
  %14 = load i32, ptr %13, align 4, !tbaa !10
  %15 = or i32 %14, 256
  store i32 %15, ptr %13, align 4, !tbaa !10
  br label %16

16:                                               ; preds = %11, %2
  ret void
}