; Function Attrs: mustprogress nofree norecurse nosync nounwind willreturn memory(argmem: readwrite) uwtable
define void @_ZNK6icu_778numparse4impl24RequireCurrencyValidator11postProcessERNS1_12ParsedNumberE(ptr nonnull readnone align 8 captures(none) %0, ptr noundef nonnull align 8 captures(none) dereferenceable(216) %1) unnamed_addr #0 align 2 {
  %3 = getelementptr inbounds nuw i8, ptr %1, i64 208
  %4 = load i16, ptr %3, align 8, !tbaa !18
  %5 = icmp eq i16 %4, 0
  br i1 %5, label %6, label %10

6:                                                ; preds = %2
  %7 = getelementptr inbounds nuw i8, ptr %1, i64 76
  %8 = load i32, ptr %7, align 4, !tbaa !6
  %9 = or i32 %8, 256
  store i32 %9, ptr %7, align 4, !tbaa !6
  br label %10

10:                                               ; preds = %6, %2
  ret void
}